target datalayout = "e-m:e-p270:32:32-p271:32:32-p272:64:64-i64:64-i128:128-f80:128-n8:16:32:64-S128"
target triple = "x86_64-pc-linux-gnu"

%"class.marisa::grimoire::trie::LoudsTrie" = type { %"class.marisa::grimoire::vector::BitVector", %"class.marisa::grimoire::vector::BitVector", %"class.marisa::grimoire::vector::BitVector", %"class.marisa::grimoire::vector::Vector.4", %"class.marisa::grimoire::vector::FlatVector", %"class.marisa::grimoire::trie::Tail", %"class.marisa::scoped_ptr", %"class.marisa::grimoire::vector::Vector.8", i64, i64, %"class.marisa::grimoire::trie::Config", %"class.marisa::grimoire::io::Mapper" }
%"class.marisa::grimoire::vector::BitVector" = type { %"class.marisa::grimoire::vector::Vector", i64, i64, %"class.marisa::grimoire::vector::Vector.0", %"class.marisa::grimoire::vector::Vector.2", %"class.marisa::grimoire::vector::Vector.2" }
%"class.marisa::grimoire::vector::Vector" = type <{ %"class.marisa::scoped_array", ptr, ptr, i64, i64, i8, [7 x i8] }>
%"class.marisa::scoped_array" = type { ptr }
%"class.marisa::grimoire::vector::Vector.0" = type <{ %"class.marisa::scoped_array", ptr, ptr, i64, i64, i8, [7 x i8] }>
%"class.marisa::grimoire::vector::Vector.2" = type <{ %"class.marisa::scoped_array", ptr, ptr, i64, i64, i8, [7 x i8] }>
%"class.marisa::grimoire::vector::Vector.4" = type <{ %"class.marisa::scoped_array", ptr, ptr, i64, i64, i8, [7 x i8] }>
%"class.marisa::grimoire::vector::FlatVector" = type { %"class.marisa::grimoire::vector::Vector", i64, i32, i64 }
%"class.marisa::grimoire::trie::Tail" = type { %"class.marisa::grimoire::vector::Vector.6", %"class.marisa::grimoire::vector::BitVector" }
%"class.marisa::grimoire::vector::Vector.6" = type <{ %"class.marisa::scoped_array", ptr, ptr, i64, i64, i8, [7 x i8] }>
%"class.marisa::scoped_ptr" = type { ptr }
%"class.marisa::grimoire::vector::Vector.8" = type <{ %"class.marisa::scoped_array", ptr, ptr, i64, i64, i8, [7 x i8] }>
%"class.marisa::grimoire::trie::Config" = type <{ i64, i32, i32, i32, [4 x i8] }>
%"class.marisa::grimoire::io::Mapper" = type <{ ptr, ptr, i64, i64, i32, [4 x i8] }>
%"class.marisa::Agent" = type { %"class.marisa::Query", %"class.marisa::Key", %"class.marisa::scoped_ptr.12" }
%"class.marisa::Query" = type { ptr, i64, i64 }
%"class.marisa::Key" = type { ptr, i32, %"union.marisa::Key::Union" }
%"union.marisa::Key::Union" = type { i32 }
%"class.marisa::scoped_ptr.12" = type { ptr }
%"class.marisa::grimoire::trie::State" = type { %"class.marisa::grimoire::vector::Vector.6", %"class.marisa::grimoire::vector::Vector.13", i32, i32, i32, i32 }
%"class.marisa::grimoire::vector::Vector.13" = type <{ %"class.marisa::scoped_array", ptr, ptr, i64, i64, i8, [7 x i8] }>

; Function Attrs: mustprogress nounwind uwtable
define linkonce_odr void @_ZN6marisa3Key6set_idEm(ptr noundef nonnull align 8 dereferenceable(16) %0, i64 noundef %1) #5 comdat align 2 {
  %3 = alloca ptr, align 8
  %4 = alloca i64, align 8
  store ptr %0, ptr %3, align 8
  store i64 %1, ptr %4, align 8
  %5 = load ptr, ptr %3, align 8
  %6 = load i64, ptr %4, align 8
  %7 = trunc i64 %6 to i32
  %8 = getelementptr inbounds %"class.marisa::Key", ptr %5, i32 0, i32 2
  store i32 %7, ptr %8, align 4
  ret void
}

; Function Attrs: mustprogress nounwind uwtable
define linkonce_odr void @_ZN6marisa3Key7set_strEPKcm(ptr noundef nonnull align 8 dereferenceable(16) %0, ptr noundef %1, i64 noundef %2) #5 comdat align 2 {
  %4 = alloca ptr, align 8
  %5 = alloca ptr, align 8
  %6 = alloca i64, align 8
  store ptr %0, ptr %4, align 8
  store ptr %1, ptr %5, align 8
  store i64 %2, ptr %6, align 8
  %7 = load ptr, ptr %4, align 8
  %8 = load ptr, ptr %5, align 8
  %9 = getelementptr inbounds %"class.marisa::Key", ptr %7, i32 0, i32 0
  store ptr %8, ptr %9, align 8
  %10 = load i64, ptr %6, align 8
  %11 = trunc i64 %10 to i32
  %12 = getelementptr inbounds %"class.marisa::Key", ptr %7, i32 0, i32 1
  store i32 %11, ptr %12, align 8
  ret void
}

; Function Attrs: mustprogress nounwind uwtable
define linkonce_odr noundef nonnull align 8 dereferenceable(8) ptr @_ZNK6marisa8grimoire6vector6VectorImEixEm(ptr noundef nonnull align 8 dereferenceable(41) %0, i64 noundef %1) #5 comdat align 2 {
  %3 = alloca ptr, align 8
  %4 = alloca i64, align 8
  store ptr %0, ptr %3, align 8
  store i64 %1, ptr %4, align 8
  %5 = load ptr, ptr %3, align 8
  %6 = getelementptr inbounds %"class.marisa::grimoire::vector::Vector", ptr %5, i32 0, i32 2
  %7 = load ptr, ptr %6, align 8
  %8 = load i64, ptr %4, align 8
  %9 = getelementptr inbounds i64, ptr %7, i64 %8
  ret ptr %9
}

; Function Attrs: mustprogress nounwind uwtable
define linkonce_odr noundef nonnull align 8 dereferenceable(112) ptr @_ZNK6marisa10scoped_ptrINS_8grimoire4trie5StateEEdeEv(ptr noundef nonnull align 8 dereferenceable(8) %0) #5 comdat align 2 {
  %2 = alloca ptr, align 8
  store ptr %0, ptr %2, align 8
  %3 = load ptr, ptr %2, align 8
  %4 = getelementptr inbounds %"class.marisa::scoped_ptr.12", ptr %3, i32 0, i32 0
  %5 = load ptr, ptr %4, align 8
  ret ptr %5
}

; Function Attrs: mustprogress nounwind uwtable
define linkonce_odr void @_ZN6marisa8grimoire4trie5State15set_status_codeENS1_10StatusCodeE(ptr noundef nonnull align 8 dereferenceable(112) %0, i32 noundef %1) #5 comdat align 2 {
  %3 = alloca ptr, align 8
  %4 = alloca i32, align 4
  store ptr %0, ptr %3, align 8
  store i32 %1, ptr %4, align 4
  %5 = load ptr, ptr %3, align 8
  %6 = load i32, ptr %4, align 4
  %7 = getelementptr inbounds %"class.marisa::grimoire::trie::State", ptr %5, i32 0, i32 5
  store i32 %6, ptr %7, align 4
  ret void
}

; Function Attrs: mustprogress nounwind uwtable
define linkonce_odr noundef i64 @_ZNK6marisa5Query6lengthEv(ptr noundef nonnull align 8 dereferenceable(24) %0) #5 comdat align 2 {
  %2 = alloca ptr, align 8
  store ptr %0, ptr %2, align 8
  %3 = load ptr, ptr %2, align 8
  %4 = getelementptr inbounds %"class.marisa::Query", ptr %3, i32 0, i32 1
  %5 = load i64, ptr %4, align 8
  ret i64 %5
}

; Function Attrs: mustprogress uwtable
define linkonce_odr void @_ZN6marisa5Agent7set_keyEm(ptr noundef nonnull align 8 dereferenceable(48) %0, i64 noundef %1) #4 comdat align 2 {
  %3 = alloca ptr, align 8
  %4 = alloca i64, align 8
  store ptr %0, ptr %3, align 8
  store i64 %1, ptr %4, align 8
  %5 = load ptr, ptr %3, align 8
  %6 = getelementptr inbounds %"class.marisa::Agent", ptr %5, i32 0, i32 1
  %7 = load i64, ptr %4, align 8
  call void @_ZN6marisa3Key6set_idEm(ptr noundef nonnull align 8 dereferenceable(16) %6, i64 noundef %7)
  ret void
}

; Function Attrs: mustprogress uwtable
define linkonce_odr void @_ZN6marisa5Agent7set_keyEPKcm(ptr noundef nonnull align 8 dereferenceable(48) %0, ptr noundef %1, i64 noundef %2) #4 comdat align 2 {
  %4 = alloca ptr, align 8
  %5 = alloca ptr, align 8
  %6 = alloca i64, align 8
  store ptr %0, ptr %4, align 8
  store ptr %1, ptr %5, align 8
  store i64 %2, ptr %6, align 8
  %7 = load ptr, ptr %4, align 8
  %8 = getelementptr inbounds %"class.marisa::Agent", ptr %7, i32 0, i32 1
  %9 = load ptr, ptr %5, align 8
  %10 = load i64, ptr %6, align 8
  call void @_ZN6marisa3Key7set_strEPKcm(ptr noundef nonnull align 8 dereferenceable(16) %8, ptr noundef %9, i64 noundef %10)
  ret void
}

; Function Attrs: mustprogress nounwind uwtable
define linkonce_odr noundef i64 @_ZNK6marisa8grimoire4trie5State9query_posEv(ptr noundef nonnull align 8 dereferenceable(112) %0) #5 comdat align 2 {
  %2 = alloca ptr, align 8
  store ptr %0, ptr %2, align 8
  %3 = load ptr, ptr %2, align 8
  %4 = getelementptr inbounds %"class.marisa::grimoire::trie::State", ptr %3, i32 0, i32 3
  %5 = load i32, ptr %4, align 4
  %6 = zext i32 %5 to i64
  ret i64 %6
}

; Function Attrs: mustprogress nounwind uwtable
define linkonce_odr noundef ptr @_ZNK6marisa5Query3ptrEv(ptr noundef nonnull align 8 dereferenceable(24) %0) #5 comdat align 2 {
  %2 = alloca ptr, align 8
  store ptr %0, ptr %2, align 8
  %3 = load ptr, ptr %2, align 8
  %4 = getelementptr inbounds %"class.marisa::Query", ptr %3, i32 0, i32 0
  %5 = load ptr, ptr %4, align 8
  ret ptr %5
}

; Function Attrs: mustprogress nounwind uwtable
define linkonce_odr noundef nonnull align 8 dereferenceable(24) ptr @_ZNK6marisa5Agent5queryEv(ptr noundef nonnull align 8 dereferenceable(48) %0) #5 comdat align 2 {
  %2 = alloca ptr, align 8
  store ptr %0, ptr %2, align 8
  %3 = load ptr, ptr %2, align 8
  %4 = getelementptr inbounds %"class.marisa::Agent", ptr %3, i32 0, i32 0
  ret ptr %4
}

; Function Attrs: mustprogress uwtable
define linkonce_odr noundef zeroext i1 @_ZNK6marisa8grimoire6vector9BitVectorixEm(ptr noundef nonnull align 8 dereferenceable(208) %0, i64 noundef %1) #4 comdat align 2 {
  %3 = alloca ptr, align 8
  %4 = alloca i64, align 8
  store ptr %0, ptr %3, align 8
  store i64 %1, ptr %4, align 8
  %5 = load ptr, ptr %3, align 8
  %6 = getelementptr inbounds %"class.marisa::grimoire::vector::BitVector", ptr %5, i32 0, i32 0
  %7 = load i64, ptr %4, align 8
  %8 = udiv i64 %7, 64
  %9 = call noundef nonnull align 8 dereferenceable(8) ptr @_ZNK6marisa8grimoire6vector6VectorImEixEm(ptr noundef nonnull align 8 dereferenceable(41) %6, i64 noundef %8)
  %10 = load i64, ptr %9, align 8
  %11 = load i64, ptr %4, align 8
  %12 = urem i64 %11, 64
  %13 = shl i64 1, %12
  %14 = and i64 %10, %13
  %15 = icmp ne i64 %14, 0
  ret i1 %15
}

; Function Attrs: mustprogress nounwind uwtable
define linkonce_odr noundef i64 @_ZNK6marisa8grimoire4trie5State7node_idEv(ptr noundef nonnull align 8 dereferenceable(112) %0) #5 comdat align 2 {
  %2 = alloca ptr, align 8
  store ptr %0, ptr %2, align 8
  %3 = load ptr, ptr %2, align 8
  %4 = getelementptr inbounds %"class.marisa::grimoire::trie::State", ptr %3, i32 0, i32 2
  %5 = load i32, ptr %4, align 8
  %6 = zext i32 %5 to i64
  ret i64 %6
}

; Function Attrs: mustprogress nounwind uwtable
define linkonce_odr void @_ZN6marisa8grimoire4trie5State25common_prefix_search_initEv(ptr noundef nonnull align 8 dereferenceable(112) %0) #5 comdat align 2 {
  %2 = alloca ptr, align 8
  store ptr %0, ptr %2, align 8
  %3 = load ptr, ptr %2, align 8
  %4 = getelementptr inbounds %"class.marisa::grimoire::trie::State", ptr %3, i32 0, i32 2
  store i32 0, ptr %4, align 8
  %5 = getelementptr inbounds %"class.marisa::grimoire::trie::State", ptr %3, i32 0, i32 3
  store i32 0, ptr %5, align 4
  %6 = getelementptr inbounds %"class.marisa::grimoire::trie::State", ptr %3, i32 0, i32 5
  store i32 1, ptr %6, align 4
  ret void
}

; Function Attrs: mustprogress nounwind uwtable
define linkonce_odr noundef i32 @_ZNK6marisa8grimoire4trie5State11status_codeEv(ptr noundef nonnull align 8 dereferenceable(112) %0) #5 comdat align 2 {
  %2 = alloca ptr, align 8
  store ptr %0, ptr %2, align 8
  %3 = load ptr, ptr %2, align 8
  %4 = getelementptr inbounds %"class.marisa::grimoire::trie::State", ptr %3, i32 0, i32 5
  %5 = load i32, ptr %4, align 4
  ret i32 %5
}

; Function Attrs: mustprogress uwtable
define linkonce_odr noundef nonnull align 8 dereferenceable(112) ptr @_ZN6marisa5Agent5stateEv(ptr noundef nonnull align 8 dereferenceable(48) %0) #4 comdat align 2 {
  %2 = alloca ptr, align 8
  store ptr %0, ptr %2, align 8
  %3 = load ptr, ptr %2, align 8
  %4 = getelementptr inbounds %"class.marisa::Agent", ptr %3, i32 0, i32 2
  %5 = call noundef nonnull align 8 dereferenceable(112) ptr @_ZNK6marisa10scoped_ptrINS_8grimoire4trie5StateEEdeEv(ptr noundef nonnull align 8 dereferenceable(8) %4)
  ret ptr %5
}

; Function Attrs: mustprogress uwtable
define noundef zeroext i1 @_ZNK6marisa8grimoire4trie9LoudsTrie20common_prefix_searchERNS_5AgentE(ptr noundef nonnull align 8 dereferenceable(1136) %0, ptr noundef nonnull align 8 dereferenceable(48) %1) #4 align 2 {
  %3 = alloca i1, align 1
  %4 = alloca ptr, align 8
  %5 = alloca ptr, align 8
  %6 = alloca ptr, align 8
  store ptr %0, ptr %4, align 8
  store ptr %1, ptr %5, align 8
  %7 = load ptr, ptr %4, align 8
  %8 = load ptr, ptr %5, align 8
  %9 = call noundef nonnull align 8 dereferenceable(112) ptr @_ZN6marisa5Agent5stateEv(ptr noundef nonnull align 8 dereferenceable(48) %8)
  store ptr %9, ptr %6, align 8
  %10 = load ptr, ptr %6, align 8
  %11 = call noundef i32 @_ZNK6marisa8grimoire4trie5State11status_codeEv(ptr noundef nonnull align 8 dereferenceable(112) %10)
  %12 = icmp eq i32 %11, 3
  br i1 %12, label %13, label %14

13:                                               ; preds = %2
  store i1 false, ptr %3, align 1
  br label %71

14:                                               ; preds = %2
  %15 = load ptr, ptr %6, align 8
  %16 = call noundef i32 @_ZNK6marisa8grimoire4trie5State11status_codeEv(ptr noundef nonnull align 8 dereferenceable(112) %15)
  %17 = icmp ne i32 %16, 1
  br i1 %17, label %18, label %37

18:                                               ; preds = %14
  %19 = load ptr, ptr %6, align 8
  call void @_ZN6marisa8grimoire4trie5State25common_prefix_search_initEv(ptr noundef nonnull align 8 dereferenceable(112) %19)
  %20 = getelementptr inbounds %"class.marisa::grimoire::trie::LoudsTrie", ptr %7, i32 0, i32 1
  %21 = load ptr, ptr %6, align 8
  %22 = call noundef i64 @_ZNK6marisa8grimoire4trie5State7node_idEv(ptr noundef nonnull align 8 dereferenceable(112) %21)
  %23 = call noundef zeroext i1 @_ZNK6marisa8grimoire6vector9BitVectorixEm(ptr noundef nonnull align 8 dereferenceable(208) %20, i64 noundef %22)
  br i1 %23, label %24, label %36

24:                                               ; preds = %18
  %25 = load ptr, ptr %5, align 8
  %26 = load ptr, ptr %5, align 8
  %27 = call noundef nonnull align 8 dereferenceable(24) ptr @_ZNK6marisa5Agent5queryEv(ptr noundef nonnull align 8 dereferenceable(48) %26)
  %28 = call noundef ptr @_ZNK6marisa5Query3ptrEv(ptr noundef nonnull align 8 dereferenceable(24) %27)
  %29 = load ptr, ptr %6, align 8
  %30 = call noundef i64 @_ZNK6marisa8grimoire4trie5State9query_posEv(ptr noundef nonnull align 8 dereferenceable(112) %29)
  call void @_ZN6marisa5Agent7set_keyEPKcm(ptr noundef nonnull align 8 dereferenceable(48) %25, ptr noundef %28, i64 noundef %30)
  %31 = load ptr, ptr %5, align 8
  %32 = getelementptr inbounds %"class.marisa::grimoire::trie::LoudsTrie", ptr %7, i32 0, i32 1
  %33 = load ptr, ptr %6, align 8
  %34 = call noundef i64 @_ZNK6marisa8grimoire4trie5State7node_idEv(ptr noundef nonnull align 8 dereferenceable(112) %33)
  %35 = call noundef i64 @_ZNK6marisa8grimoire6vector9BitVector5rank1Em(ptr noundef nonnull align 8 dereferenceable(208) %32, i64 noundef %34)
  call void @_ZN6marisa5Agent7set_keyEm(ptr noundef nonnull align 8 dereferenceable(48) %31, i64 noundef %35)
  store i1 true, ptr %3, align 1
  br label %71

36:                                               ; preds = %18
  br label %37

37:                                               ; preds = %36, %14
  br label %38

38:                                               ; preds = %68, %37
  %39 = load ptr, ptr %6, align 8
  %40 = call noundef i64 @_ZNK6marisa8grimoire4trie5State9query_posEv(ptr noundef nonnull align 8 dereferenceable(112) %39)
  %41 = load ptr, ptr %5, align 8
  %42 = call noundef nonnull align 8 dereferenceable(24) ptr @_ZNK6marisa5Agent5queryEv(ptr noundef nonnull align 8 dereferenceable(48) %41)
  %43 = call noundef i64 @_ZNK6marisa5Query6lengthEv(ptr noundef nonnull align 8 dereferenceable(24) %42)
  %44 = icmp ult i64 %40, %43
  br i1 %44, label %45, label %69

45:                                               ; preds = %38
  %46 = load ptr, ptr %5, align 8
  %47 = call noundef zeroext i1 @_ZNK6marisa8grimoire4trie9LoudsTrie10find_childERNS_5AgentE(ptr noundef nonnull align 8 dereferenceable(1136) %7, ptr noundef nonnull align 8 dereferenceable(48) %46)
  br i1 %47, label %50, label %48

48:                                               ; preds = %45
  %49 = load ptr, ptr %6, align 8
  call void @_ZN6marisa8grimoire4trie5State15set_status_codeENS1_10StatusCodeE(ptr noundef nonnull align 8 dereferenceable(112) %49, i32 noundef 3)
  store i1 false, ptr %3, align 1
  br label %71

50:                                               ; preds = %45
  %51 = getelementptr inbounds %"class.marisa::grimoire::trie::LoudsTrie", ptr %7, i32 0, i32 1
  %52 = load ptr, ptr %6, align 8
  %53 = call noundef i64 @_ZNK6marisa8grimoire4trie5State7node_idEv(ptr noundef nonnull align 8 dereferenceable(112) %52)
  %54 = call noundef zeroext i1 @_ZNK6marisa8grimoire6vector9BitVectorixEm(ptr noundef nonnull align 8 dereferenceable(208) %51, i64 noundef %53)
  br i1 %54, label %55, label %67

55:                                               ; preds = %50
  %56 = load ptr, ptr %5, align 8
  %57 = load ptr, ptr %5, align 8
  %58 = call noundef nonnull align 8 dereferenceable(24) ptr @_ZNK6marisa5Agent5queryEv(ptr noundef nonnull align 8 dereferenceable(48) %57)
  %59 = call noundef ptr @_ZNK6marisa5Query3ptrEv(ptr noundef nonnull align 8 dereferenceable(24) %58)
  %60 = load ptr, ptr %6, align 8
  %61 = call noundef i64 @_ZNK6marisa8grimoire4trie5State9query_posEv(ptr noundef nonnull align 8 dereferenceable(112) %60)
  call void @_ZN6marisa5Agent7set_keyEPKcm(ptr noundef nonnull align 8 dereferenceable(48) %56, ptr noundef %59, i64 noundef %61)
  %62 = load ptr, ptr %5, align 8
  %63 = getelementptr inbounds %"class.marisa::grimoire::trie::LoudsTrie", ptr %7, i32 0, i32 1
  %64 = load ptr, ptr %6, align 8
  %65 = call noundef i64 @_ZNK6marisa8grimoire4trie5State7node_idEv(ptr noundef nonnull align 8 dereferenceable(112) %64)
  %66 = call noundef i64 @_ZNK6marisa8grimoire6vector9BitVector5rank1Em(ptr noundef nonnull align 8 dereferenceable(208) %63, i64 noundef %65)
  call void @_ZN6marisa5Agent7set_keyEm(ptr noundef nonnull align 8 dereferenceable(48) %62, i64 noundef %66)
  store i1 true, ptr %3, align 1
  br label %71

67:                                               ; preds = %50
  br label %68

68:                                               ; preds = %67
  br label %38, !llvm.loop !16

69:                                               ; preds = %38
  %70 = load ptr, ptr %6, align 8
  call void @_ZN6marisa8grimoire4trie5State15set_status_codeENS1_10StatusCodeE(ptr noundef nonnull align 8 dereferenceable(112) %70, i32 noundef 3)
  store i1 false, ptr %3, align 1
  br label %71

71:                                               ; preds = %69, %55, %48, %24, %13
  %72 = load i1, ptr %3, align 1
  ret i1 %72
}