; Function Attrs: mustprogress uwtable
define noundef zeroext i1 @_ZNK6marisa8grimoire4trie9LoudsTrie20common_prefix_searchERNS_5AgentE(ptr noundef nonnull align 8 dereferenceable(1136) %0, ptr noundef nonnull align 8 dereferenceable(48) %1) local_unnamed_addr #3 align 2 {
  %3 = getelementptr inbounds i8, ptr %1, i64 40
  %4 = load ptr, ptr %3, align 8
  %5 = getelementptr inbounds i8, ptr %4, i64 108
  %6 = load i32, ptr %5, align 4
  switch i32 %6, label %7 [
    i32 3, label %59
    i32 1, label %24
  ]

7:                                                ; preds = %2
  %8 = getelementptr inbounds i8, ptr %4, i64 96
  store i32 0, ptr %8, align 8
  %9 = getelementptr inbounds i8, ptr %4, i64 100
  store i32 0, ptr %9, align 4
  store i32 1, ptr %5, align 4
  %10 = getelementptr inbounds i8, ptr %0, i64 224
  %11 = load ptr, ptr %10, align 8
  %12 = load i64, ptr %11, align 8
  %13 = and i64 %12, 1
  %.not = icmp eq i64 %13, 0
  br i1 %.not, label %24, label %14

14:                                               ; preds = %7
  %15 = getelementptr inbounds i8, ptr %0, i64 208
  %16 = load ptr, ptr %1, align 8
  %17 = getelementptr inbounds i8, ptr %1, i64 24
  store ptr %16, ptr %17, align 8
  %18 = getelementptr inbounds i8, ptr %1, i64 32
  store i32 0, ptr %18, align 8
  %19 = load i32, ptr %8, align 8
  %20 = zext i32 %19 to i64
  %21 = tail call noundef i64 @_ZNK6marisa8grimoire6vector9BitVector5rank1Em(ptr noundef nonnull align 8 dereferenceable(208) %15, i64 noundef %20)
  %22 = trunc i64 %21 to i32
  %23 = getelementptr inbounds i8, ptr %1, i64 36
  store i32 %22, ptr %23, align 4
  br label %59

24:                                               ; preds = %2, %7
  %25 = getelementptr inbounds i8, ptr %4, i64 100
  %26 = getelementptr inbounds i8, ptr %1, i64 8
  %27 = getelementptr inbounds i8, ptr %4, i64 96
  %28 = getelementptr inbounds i8, ptr %0, i64 224
  br label %29

29:                                               ; preds = %37, %24
  %30 = load i32, ptr %25, align 4
  %31 = zext i32 %30 to i64
  %32 = load i64, ptr %26, align 8
  %33 = icmp ugt i64 %32, %31
  br i1 %33, label %34, label %58

34:                                               ; preds = %29
  %35 = tail call noundef zeroext i1 @_ZNK6marisa8grimoire4trie9LoudsTrie10find_childERNS_5AgentE(ptr noundef nonnull align 8 dereferenceable(1136) %0, ptr noundef nonnull align 8 dereferenceable(48) %1)
  br i1 %35, label %37, label %36

36:                                               ; preds = %34
  store i32 3, ptr %5, align 4
  br label %59

37:                                               ; preds = %34
  %38 = load i32, ptr %27, align 8
  %39 = zext i32 %38 to i64
  %40 = lshr i64 %39, 6
  %41 = load ptr, ptr %28, align 8
  %42 = getelementptr inbounds i64, ptr %41, i64 %40
  %43 = load i64, ptr %42, align 8
  %44 = and i64 %39, 63
  %45 = shl nuw i64 1, %44
  %46 = and i64 %45, %43
  %.not23 = icmp eq i64 %46, 0
  br i1 %.not23, label %29, label %47, !llvm.loop !21

47:                                               ; preds = %37
  %48 = getelementptr inbounds i8, ptr %0, i64 208
  %49 = load ptr, ptr %1, align 8
  %50 = load i32, ptr %25, align 4
  %51 = getelementptr inbounds i8, ptr %1, i64 24
  store ptr %49, ptr %51, align 8
  %52 = getelementptr inbounds i8, ptr %1, i64 32
  store i32 %50, ptr %52, align 8
  %53 = load i32, ptr %27, align 8
  %54 = zext i32 %53 to i64
  %55 = tail call noundef i64 @_ZNK6marisa8grimoire6vector9BitVector5rank1Em(ptr noundef nonnull align 8 dereferenceable(208) %48, i64 noundef %54)
  %56 = trunc i64 %55 to i32
  %57 = getelementptr inbounds i8, ptr %1, i64 36
  store i32 %56, ptr %57, align 4
  br label %59

58:                                               ; preds = %29
  store i32 3, ptr %5, align 4
  br label %59

59:                                               ; preds = %2, %58, %47, %36, %14
  %.0 = phi i1 [ true, %14 ], [ true, %47 ], [ false, %36 ], [ false, %58 ], [ false, %2 ]
  ret i1 %.0
}